target datalayout = "e-m:e-p270:32:32-p271:32:32-p272:64:64-i64:64-i128:128-f80:128-n8:16:32:64-S128"
target triple = "x86_64-pc-linux-gnu"

%struct.AVClass = type { ptr, ptr, ptr, i32, i32, i32, i32, ptr, ptr, ptr, ptr, i32 }

@ff_framesync_class = external constant %struct.AVClass, align 8

; Function Attrs: nounwind uwtable
define internal ptr @child_class_iterate(ptr noundef %0) #1 {
  %2 = alloca ptr, align 8
  %3 = alloca ptr, align 8
  store ptr %0, ptr %3, align 8, !tbaa !159
  %4 = load ptr, ptr %3, align 8, !tbaa !159
  %5 = load ptr, ptr %4, align 8, !tbaa !158
  %6 = ptrtoint ptr %5 to i64
  switch i64 %6, label %12 [
    i64 0, label %7
    i64 1, label %10
  ]

7:                                                ; preds = %1
  %8 = load ptr, ptr %3, align 8, !tbaa !159
  store ptr inttoptr (i64 1 to ptr), ptr %8, align 8, !tbaa !158
  %9 = call ptr @sws_get_class()
  store ptr %9, ptr %2, align 8
  br label %13

10:                                               ; preds = %1
  %11 = load ptr, ptr %3, align 8, !tbaa !159
  store ptr inttoptr (i64 2 to ptr), ptr %11, align 8, !tbaa !158
  store ptr @ff_framesync_class, ptr %2, align 8
  br label %13

12:                                               ; preds = %1
  store ptr null, ptr %2, align 8
  br label %13

13:                                               ; preds = %12, %10, %7
  %14 = load ptr, ptr %2, align 8
  ret ptr %14
}