; Function Attrs: nounwind uwtable
define internal ptr @child_class_iterate(ptr noundef captures(none) %0) #1 {
  %2 = load ptr, ptr %0, align 8, !tbaa !140
  %3 = ptrtoint ptr %2 to i64
  switch i64 %3, label %7 [
    i64 0, label %4
    i64 1, label %6
  ]

4:                                                ; preds = %1
  store ptr inttoptr (i64 1 to ptr), ptr %0, align 8, !tbaa !140
  %5 = tail call ptr @sws_get_class() #14
  br label %7

6:                                                ; preds = %1
  store ptr inttoptr (i64 2 to ptr), ptr %0, align 8, !tbaa !140
  br label %7

7:                                                ; preds = %1, %6, %4
  %.0 = phi ptr [ @ff_framesync_class, %6 ], [ %5, %4 ], [ null, %1 ]
  ret ptr %.0
}